; Function Attrs: mustprogress uwtable
define hidden void @_ZN19OpenColorIO_v2_4dev18FormatMetadataImpl12addAttributeEPKcS2_(ptr noundef nonnull align 8 dereferenceable(120) %this, ptr noundef %name, ptr noundef %value) unnamed_addr #0 align 2 personality ptr @__gxx_personality_v0 {
entry:
  %name.addr = alloca ptr, align 8
  %attrib = alloca %"struct.std::pair", align 8
  %ref.tmp = alloca ptr, align 8
  store ptr %name, ptr %name.addr, align 8
  %tobool.not = icmp eq ptr %name, null
  br i1 %tobool.not, label %if.then, label %lor.lhs.false

lor.lhs.false:                                    ; preds = %entry
  %0 = load i8, ptr %name, align 1
  %tobool2.not = icmp eq i8 %0, 0
  br i1 %tobool2.not, label %if.then, label %if.end

if.then:                                          ; preds = %lor.lhs.false, %entry
  %exception = tail call ptr @__cxa_allocate_exception(i64 16) #17
  invoke void @_ZN19OpenColorIO_v2_4dev9ExceptionC1EPKc(ptr noundef nonnull align 8 dereferenceable(16) %exception, ptr noundef nonnull @.str.18)
          to label %invoke.cont unwind label %lpad

invoke.cont:                                      ; preds = %if.then
  tail call void @__cxa_throw(ptr nonnull %exception, ptr nonnull @_ZTIN19OpenColorIO_v2_4dev9ExceptionE, ptr nonnull @_ZN19OpenColorIO_v2_4dev9ExceptionD1Ev) #18
  unreachable

lpad:                                             ; preds = %if.then
  %1 = landingpad { ptr, i32 }
          cleanup
  tail call void @__cxa_free_exception(ptr %exception) #17
  resume { ptr, i32 } %1

if.end:                                           ; preds = %lor.lhs.false
  %tobool3.not = icmp eq ptr %value, null
  %cond = select i1 %tobool3.not, ptr @.str.12, ptr %value
  store ptr %cond, ptr %ref.tmp, align 8
  call void @_ZNSt4pairINSt7__cxx1112basic_stringIcSt11char_traitsIcESaIcEEES5_EC2IRPKcS9_TnNSt9enable_ifIXaaclsr5_PCCPE22_MoveConstructiblePairIT_T0_EEclsr5_PCCPE30_ImplicitlyMoveConvertiblePairISC_SD_EEEbE4typeELb1EEEOSC_OSD_(ptr noundef nonnull align 8 dereferenceable(64) %attrib, ptr noundef nonnull align 8 dereferenceable(8) %name.addr, ptr noundef nonnull align 8 dereferenceable(8) %ref.tmp)
  call void @_ZN19OpenColorIO_v2_4dev18FormatMetadataImpl12addAttributeERKSt4pairINSt7__cxx1112basic_stringIcSt11char_traitsIcESaIcEEES7_E(ptr noundef nonnull align 8 dereferenceable(120) %this, ptr noundef nonnull align 8 dereferenceable(64) %attrib) #17
  %second.i = getelementptr inbounds i8, ptr %attrib, i64 32
  call void @_ZNSt7__cxx1112basic_stringIcSt11char_traitsIcESaIcEED1Ev(ptr noundef nonnull align 8 dereferenceable(32) %second.i) #17
  call void @_ZNSt7__cxx1112basic_stringIcSt11char_traitsIcESaIcEED1Ev(ptr noundef nonnull align 8 dereferenceable(32) %attrib) #17
  ret void
}